target datalayout = "e-m:e-p270:32:32-p271:32:32-p272:64:64-i64:64-i128:128-f80:128-n8:16:32:64-S128"
target triple = "x86_64-pc-linux-gnu"

%struct.SResource = type { ptr, i8, i8, i32, i32, i32, i32, i32, ptr, %struct.UString }
%struct.UString = type { ptr, i32, i32 }
%class.ContainerResource = type { %struct.SResource, i32, ptr }
%class.TableResource = type { %class.ContainerResource, i8, ptr }
%"class.icu_77::LocalPointer" = type { %"class.icu_77::LocalPointerBase" }
%"class.icu_77::LocalPointerBase" = type { ptr }

; Function Attrs: mustprogress nounwind uwtable
define linkonce_odr dso_local void @_ZN6icu_7716LocalPointerBaseI13TableResourceED2Ev(ptr noundef nonnull align 8 dereferenceable(8) %0) unnamed_addr #4 comdat align 2 {
  %2 = alloca ptr, align 8
  store ptr %0, ptr %2, align 8, !tbaa !182
  ret void
}

; Function Attrs: mustprogress nounwind uwtable
define linkonce_odr dso_local void @_ZN6icu_7716LocalPointerBaseI13TableResourceEC2EPS1_(ptr noundef nonnull align 8 dereferenceable(8) %0, ptr noundef %1) unnamed_addr #4 comdat align 2 {
  %3 = alloca ptr, align 8
  %4 = alloca ptr, align 8
  store ptr %0, ptr %3, align 8, !tbaa !182
  store ptr %1, ptr %4, align 8, !tbaa !59
  %5 = load ptr, ptr %3, align 8
  %6 = getelementptr inbounds nuw %"class.icu_77::LocalPointerBase", ptr %5, i32 0, i32 0
  %7 = load ptr, ptr %4, align 8, !tbaa !59
  store ptr %7, ptr %6, align 8, !tbaa !184
  ret void
}

; Function Attrs: mustprogress uwtable
define linkonce_odr dso_local void @_ZN17ContainerResourceC2EP7SRBRootPKcaPK7UStringR10UErrorCode(ptr noundef nonnull align 8 dereferenceable(72) %0, ptr noundef %1, ptr noundef %2, i8 noundef signext %3, ptr noundef %4, ptr noundef nonnull align 4 dereferenceable(4) %5) unnamed_addr #5 comdat align 2 {
  %7 = alloca ptr, align 8
  %8 = alloca ptr, align 8
  %9 = alloca ptr, align 8
  %10 = alloca i8, align 1
  %11 = alloca ptr, align 8
  %12 = alloca ptr, align 8
  store ptr %0, ptr %7, align 8, !tbaa !53
  store ptr %1, ptr %8, align 8, !tbaa !39
  store ptr %2, ptr %9, align 8, !tbaa !41
  store i8 %3, ptr %10, align 1, !tbaa !22
  store ptr %4, ptr %11, align 8, !tbaa !42
  store ptr %5, ptr %12, align 8, !tbaa !44
  %13 = load ptr, ptr %7, align 8
  %14 = load ptr, ptr %8, align 8, !tbaa !39
  %15 = load ptr, ptr %9, align 8, !tbaa !41
  %16 = load i8, ptr %10, align 1, !tbaa !22
  %17 = load ptr, ptr %11, align 8, !tbaa !42
  %18 = load ptr, ptr %12, align 8, !tbaa !44
  call void @_ZN9SResourceC2EP7SRBRootPKcaPK7UStringR10UErrorCode(ptr noundef nonnull align 8 dereferenceable(56) %13, ptr noundef %14, ptr noundef %15, i8 noundef signext %16, ptr noundef %17, ptr noundef nonnull align 4 dereferenceable(4) %18)
  store ptr getelementptr inbounds inrange(-16, 64) ({ [10 x ptr] }, ptr @_ZTV17ContainerResource, i32 0, i32 0, i32 2), ptr %13, align 8, !tbaa !26
  %19 = getelementptr inbounds nuw %class.ContainerResource, ptr %13, i32 0, i32 1
  store i32 0, ptr %19, align 8, !tbaa !61
  %20 = getelementptr inbounds nuw %class.ContainerResource, ptr %13, i32 0, i32 2
  store ptr null, ptr %20, align 8, !tbaa !55
  ret void
}

; Function Attrs: mustprogress nounwind uwtable
define linkonce_odr dso_local void @_ZN6icu_7712LocalPointerI13TableResourceED2Ev(ptr noundef nonnull align 8 dereferenceable(8) %0) unnamed_addr #4 comdat align 2 {
  %2 = alloca ptr, align 8
  store ptr %0, ptr %2, align 8, !tbaa !180
  %3 = load ptr, ptr %2, align 8
  %4 = getelementptr inbounds nuw %"class.icu_77::LocalPointerBase", ptr %3, i32 0, i32 0
  %5 = load ptr, ptr %4, align 8, !tbaa !184
  %6 = icmp eq ptr %5, null
  br i1 %6, label %11, label %7

7:                                                ; preds = %1
  %8 = load ptr, ptr %5, align 8, !tbaa !26
  %9 = getelementptr inbounds ptr, ptr %8, i64 1
  %10 = load ptr, ptr %9, align 8
  call void %10(ptr noundef nonnull align 8 dereferenceable(88) %5) #3
  br label %11

11:                                               ; preds = %7, %1
  call void @_ZN6icu_7716LocalPointerBaseI13TableResourceED2Ev(ptr noundef nonnull align 8 dereferenceable(8) %3) #3
  ret void
}

; Function Attrs: mustprogress nounwind uwtable
define linkonce_odr dso_local noundef ptr @_ZN6icu_7716LocalPointerBaseI13TableResourceE6orphanEv(ptr noundef nonnull align 8 dereferenceable(8) %0) #4 comdat align 2 {
  %2 = alloca ptr, align 8
  %3 = alloca ptr, align 8
  store ptr %0, ptr %2, align 8, !tbaa !182
  %4 = load ptr, ptr %2, align 8
  call void @llvm.lifetime.start.p0(i64 8, ptr %3) #3
  %5 = getelementptr inbounds nuw %"class.icu_77::LocalPointerBase", ptr %4, i32 0, i32 0
  %6 = load ptr, ptr %5, align 8, !tbaa !184
  store ptr %6, ptr %3, align 8, !tbaa !59
  %7 = getelementptr inbounds nuw %"class.icu_77::LocalPointerBase", ptr %4, i32 0, i32 0
  store ptr null, ptr %7, align 8, !tbaa !184
  %8 = load ptr, ptr %3, align 8, !tbaa !59
  call void @llvm.lifetime.end.p0(i64 8, ptr %3) #3
  ret ptr %8
}

; Function Attrs: inlinehint mustprogress nounwind uwtable
define internal noundef signext i8 @_ZL9U_SUCCESS10UErrorCode(i32 noundef %0) #9 {
  %2 = alloca i32, align 4
  store i32 %0, ptr %2, align 4, !tbaa !45
  %3 = load i32, ptr %2, align 4, !tbaa !45
  %4 = icmp sle i32 %3, 0
  %5 = zext i1 %4 to i8
  ret i8 %5
}

; Function Attrs: mustprogress uwtable
define linkonce_odr dso_local void @_ZN6icu_7712LocalPointerI13TableResourceEC2EPS1_R10UErrorCode(ptr noundef nonnull align 8 dereferenceable(8) %0, ptr noundef %1, ptr noundef nonnull align 4 dereferenceable(4) %2) unnamed_addr #5 comdat align 2 {
  %4 = alloca ptr, align 8
  %5 = alloca ptr, align 8
  %6 = alloca ptr, align 8
  store ptr %0, ptr %4, align 8, !tbaa !180
  store ptr %1, ptr %5, align 8, !tbaa !59
  store ptr %2, ptr %6, align 8, !tbaa !44
  %7 = load ptr, ptr %4, align 8
  %8 = load ptr, ptr %5, align 8, !tbaa !59
  call void @_ZN6icu_7716LocalPointerBaseI13TableResourceEC2EPS1_(ptr noundef nonnull align 8 dereferenceable(8) %7, ptr noundef %8)
  %9 = load ptr, ptr %5, align 8, !tbaa !59
  %10 = icmp eq ptr %9, null
  br i1 %10, label %11, label %18

11:                                               ; preds = %3
  %12 = load ptr, ptr %6, align 8, !tbaa !44
  %13 = load i32, ptr %12, align 4, !tbaa !45
  %14 = call noundef signext i8 @_ZL9U_SUCCESS10UErrorCode(i32 noundef %13)
  %15 = icmp ne i8 %14, 0
  br i1 %15, label %16, label %18

16:                                               ; preds = %11
  %17 = load ptr, ptr %6, align 8, !tbaa !44
  store i32 7, ptr %17, align 4, !tbaa !45
  br label %18

18:                                               ; preds = %16, %11, %3
  ret void
}

; Function Attrs: mustprogress uwtable
define linkonce_odr dso_local void @_ZN13TableResourceC2EP7SRBRootPKcPK7UStringR10UErrorCode(ptr noundef nonnull align 8 dereferenceable(88) %0, ptr noundef %1, ptr noundef %2, ptr noundef %3, ptr noundef nonnull align 4 dereferenceable(4) %4) unnamed_addr #5 comdat align 2 {
  %6 = alloca ptr, align 8
  %7 = alloca ptr, align 8
  %8 = alloca ptr, align 8
  %9 = alloca ptr, align 8
  %10 = alloca ptr, align 8
  store ptr %0, ptr %6, align 8, !tbaa !59
  store ptr %1, ptr %7, align 8, !tbaa !39
  store ptr %2, ptr %8, align 8, !tbaa !41
  store ptr %3, ptr %9, align 8, !tbaa !42
  store ptr %4, ptr %10, align 8, !tbaa !44
  %11 = load ptr, ptr %6, align 8
  %12 = load ptr, ptr %7, align 8, !tbaa !39
  %13 = load ptr, ptr %8, align 8, !tbaa !41
  %14 = load ptr, ptr %9, align 8, !tbaa !42
  %15 = load ptr, ptr %10, align 8, !tbaa !44
  call void @_ZN17ContainerResourceC2EP7SRBRootPKcaPK7UStringR10UErrorCode(ptr noundef nonnull align 8 dereferenceable(72) %11, ptr noundef %12, ptr noundef %13, i8 noundef signext 2, ptr noundef %14, ptr noundef nonnull align 4 dereferenceable(4) %15)
  store ptr getelementptr inbounds inrange(-16, 64) ({ [10 x ptr] }, ptr @_ZTV13TableResource, i32 0, i32 0, i32 2), ptr %11, align 8, !tbaa !26
  %16 = getelementptr inbounds nuw %class.TableResource, ptr %11, i32 0, i32 1
  store i8 2, ptr %16, align 8, !tbaa !130
  %17 = getelementptr inbounds nuw %class.TableResource, ptr %11, i32 0, i32 2
  %18 = load ptr, ptr %7, align 8, !tbaa !39
  store ptr %18, ptr %17, align 8, !tbaa !62
  ret void
}

; Function Attrs: mustprogress uwtable
define dso_local ptr @table_open(ptr noundef %0, ptr noundef %1, ptr noundef %2, ptr noundef %3) #5 personality ptr @__gxx_personality_v0 {
  %5 = alloca ptr, align 8
  %6 = alloca ptr, align 8
  %7 = alloca ptr, align 8
  %8 = alloca ptr, align 8
  %9 = alloca %"class.icu_77::LocalPointer", align 8
  %10 = alloca ptr, align 8
  %11 = alloca i32, align 4
  store ptr %0, ptr %5, align 8, !tbaa !39
  store ptr %1, ptr %6, align 8, !tbaa !41
  store ptr %2, ptr %7, align 8, !tbaa !42
  store ptr %3, ptr %8, align 8, !tbaa !44
  call void @llvm.lifetime.start.p0(i64 8, ptr %9) #3
  %12 = call noalias noundef nonnull ptr @_Znwm(i64 noundef 88) #24
  %13 = load ptr, ptr %5, align 8, !tbaa !39
  %14 = load ptr, ptr %6, align 8, !tbaa !41
  %15 = load ptr, ptr %7, align 8, !tbaa !42
  %16 = load ptr, ptr %8, align 8, !tbaa !44
  invoke void @_ZN13TableResourceC2EP7SRBRootPKcPK7UStringR10UErrorCode(ptr noundef nonnull align 8 dereferenceable(88) %12, ptr noundef %13, ptr noundef %14, ptr noundef %15, ptr noundef nonnull align 4 dereferenceable(4) %16)
          to label %17 unwind label %30

17:                                               ; preds = %4
  %18 = load ptr, ptr %8, align 8, !tbaa !44
  call void @_ZN6icu_7712LocalPointerI13TableResourceEC2EPS1_R10UErrorCode(ptr noundef nonnull align 8 dereferenceable(8) %9, ptr noundef %12, ptr noundef nonnull align 4 dereferenceable(4) %18)
  %19 = load ptr, ptr %8, align 8, !tbaa !44
  %20 = load i32, ptr %19, align 4, !tbaa !45
  %21 = invoke noundef signext i8 @_ZL9U_SUCCESS10UErrorCode(i32 noundef %20)
          to label %22 unwind label %34

22:                                               ; preds = %17
  %23 = icmp ne i8 %21, 0
  br i1 %23, label %24, label %27

24:                                               ; preds = %22
  %25 = invoke noundef ptr @_ZN6icu_7716LocalPointerBaseI13TableResourceE6orphanEv(ptr noundef nonnull align 8 dereferenceable(8) %9)
          to label %26 unwind label %34

26:                                               ; preds = %24
  br label %28

27:                                               ; preds = %22
  br label %28

28:                                               ; preds = %27, %26
  %29 = phi ptr [ %25, %26 ], [ null, %27 ]
  call void @_ZN6icu_7712LocalPointerI13TableResourceED2Ev(ptr noundef nonnull align 8 dereferenceable(8) %9) #3
  call void @llvm.lifetime.end.p0(i64 8, ptr %9) #3
  ret ptr %29

30:                                               ; preds = %4
  %31 = landingpad { ptr, i32 }
          cleanup
  %32 = extractvalue { ptr, i32 } %31, 0
  store ptr %32, ptr %10, align 8
  %33 = extractvalue { ptr, i32 } %31, 1
  store i32 %33, ptr %11, align 4
  call void @_ZdlPvm(ptr noundef %12, i64 noundef 88) #23
  br label %38

34:                                               ; preds = %24, %17
  %35 = landingpad { ptr, i32 }
          cleanup
  %36 = extractvalue { ptr, i32 } %35, 0
  store ptr %36, ptr %10, align 8
  %37 = extractvalue { ptr, i32 } %35, 1
  store i32 %37, ptr %11, align 4
  call void @_ZN6icu_7712LocalPointerI13TableResourceED2Ev(ptr noundef nonnull align 8 dereferenceable(8) %9) #3
  br label %38

38:                                               ; preds = %34, %30
  call void @llvm.lifetime.end.p0(i64 8, ptr %9) #3
  br label %39

39:                                               ; preds = %38
  %40 = load ptr, ptr %10, align 8
  %41 = load i32, ptr %11, align 4
  %42 = insertvalue { ptr, i32 } poison, ptr %40, 0
  %43 = insertvalue { ptr, i32 } %42, i32 %41, 1
  resume { ptr, i32 } %43
}