; Function Attrs: mustprogress uwtable
define dso_local noundef ptr @table_open(ptr noundef %0, ptr noundef %1, ptr noundef %2, ptr noundef %3) local_unnamed_addr #7 personality ptr @__gxx_personality_v0 {
  %5 = tail call noalias noundef nonnull dereferenceable(88) ptr @_Znwm(i64 noundef 88) #36
  invoke void @_ZN9SResourceC2EP7SRBRootPKcaPK7UStringR10UErrorCode(ptr noundef nonnull align 8 dereferenceable(88) %5, ptr noundef %0, ptr noundef %1, i8 noundef signext 2, ptr noundef %2, ptr noundef nonnull align 4 dereferenceable(4) %3)
          to label %6 unwind label %18

6:                                                ; preds = %4
  %7 = getelementptr inbounds nuw i8, ptr %5, i64 56
  store i32 0, ptr %7, align 8, !tbaa !42
  %8 = getelementptr inbounds nuw i8, ptr %5, i64 64
  store ptr null, ptr %8, align 8, !tbaa !38
  store ptr getelementptr inbounds nuw inrange(-16, 64) (i8, ptr @_ZTV13TableResource, i64 16), ptr %5, align 8, !tbaa !9
  %9 = getelementptr inbounds nuw i8, ptr %5, i64 72
  store i8 2, ptr %9, align 8, !tbaa !92
  %10 = getelementptr inbounds nuw i8, ptr %5, i64 80
  store ptr %0, ptr %10, align 8, !tbaa !43
  %11 = load i32, ptr %3, align 4
  %12 = icmp sgt i32 %11, 0
  br i1 %12, label %._crit_edge.i.i, label %_ZN6icu_7712LocalPointerI13TableResourceED2Ev.exit

._crit_edge.i.i:                                  ; preds = %6
  store ptr getelementptr inbounds nuw inrange(-16, 64) (i8, ptr @_ZTV9SResource, i64 16), ptr %5, align 8, !tbaa !9
  %13 = getelementptr inbounds nuw i8, ptr %5, i64 40
  invoke void @ustr_deinit(ptr noundef nonnull %13)
          to label %_ZN13TableResourceD0Ev.exit unwind label %14

14:                                               ; preds = %._crit_edge.i.i
  %15 = landingpad { ptr, i32 }
          catch ptr null
  %16 = extractvalue { ptr, i32 } %15, 0
  tail call void @__clang_call_terminate(ptr %16) #31
  unreachable

_ZN13TableResourceD0Ev.exit:                      ; preds = %._crit_edge.i.i
  tail call void @_ZdlPvm(ptr noundef nonnull align 8 dereferenceable(88) %5, i64 noundef 88) #35
  br label %_ZN6icu_7712LocalPointerI13TableResourceED2Ev.exit

_ZN6icu_7712LocalPointerI13TableResourceED2Ev.exit: ; preds = %6, %_ZN13TableResourceD0Ev.exit
  %17 = phi ptr [ null, %_ZN13TableResourceD0Ev.exit ], [ %5, %6 ]
  ret ptr %17

18:                                               ; preds = %4
  %19 = landingpad { ptr, i32 }
          cleanup
  tail call void @_ZdlPvm(ptr noundef nonnull %5, i64 noundef 88) #35
  resume { ptr, i32 } %19
}